; Function Attrs: mustprogress nofree norecurse nosync nounwind willreturn memory(argmem: readwrite) uwtable
define noundef signext i8 @_ZN6icu_7524FCDUTF8CollationIterator18foundNULTerminatorEv(ptr nocapture noundef nonnull align 8 dereferenceable(496) %this) unnamed_addr #8 align 2 {
entry:
  %state = getelementptr inbounds i8, ptr %this, i64 408
  %0 = load i32, ptr %state, align 8
  %cmp = icmp eq i32 %0, 0
  br i1 %cmp, label %land.lhs.true, label %return

land.lhs.true:                                    ; preds = %entry
  %length = getelementptr inbounds i8, ptr %this, i64 404
  %1 = load i32, ptr %length, align 4
  %cmp2 = icmp slt i32 %1, 0
  br i1 %cmp2, label %if.then, label %return

if.then:                                          ; preds = %land.lhs.true
  %pos = getelementptr inbounds i8, ptr %this, i64 400
  %2 = load i32, ptr %pos, align 8
  %dec = add nsw i32 %2, -1
  store i32 %dec, ptr %pos, align 8
  store i32 %dec, ptr %length, align 4
  br label %return

return:                                           ; preds = %entry, %land.lhs.true, %if.then
  %retval.0 = phi i8 [ 1, %if.then ], [ 0, %land.lhs.true ], [ 0, %entry ]
  ret i8 %retval.0
}